; Function Attrs: mustprogress nofree norecurse nosync nounwind willreturn memory(argmem: read) uwtable
define noundef range(i32 -255, 256) i32 @_Z10ImStrnicmpPKcS0_m(ptr noundef readonly captures(none) %0, ptr noundef readonly captures(none) %1, i64 noundef %2) local_unnamed_addr #17 {
  %.not14 = icmp eq i64 %2, 0
  br i1 %.not14, label %.critedge, label %.lr.ph

.lr.ph:                                           ; preds = %3, %16
  %.0717 = phi i64 [ %19, %16 ], [ %2, %3 ]
  %.0816 = phi ptr [ %18, %16 ], [ %1, %3 ]
  %.0915 = phi ptr [ %17, %16 ], [ %0, %3 ]
  %4 = load i8, ptr %.0816, align 1, !tbaa !211
  %5 = add i8 %4, -97
  %or.cond.i = icmp ult i8 %5, 26
  %6 = and i8 %4, 95
  %7 = select i1 %or.cond.i, i8 %6, i8 %4
  %8 = sext i8 %7 to i32
  %9 = load i8, ptr %.0915, align 1, !tbaa !211
  %10 = add i8 %9, -97
  %or.cond.i13 = icmp ult i8 %10, 26
  %11 = and i8 %9, 95
  %12 = select i1 %or.cond.i13, i8 %11, i8 %9
  %13 = sext i8 %12 to i32
  %14 = sub nsw i32 %8, %13
  %15 = icmp eq i32 %14, 0
  br i1 %15, label %16, label %.critedge

16:                                               ; preds = %.lr.ph
  %.not12 = icmp eq i8 %9, 0
  %17 = getelementptr inbounds nuw i8, ptr %.0915, i64 1
  %18 = getelementptr inbounds nuw i8, ptr %.0816, i64 1
  %19 = add i64 %.0717, -1
  %.not = icmp eq i64 %19, 0
  %or.cond = select i1 %.not12, i1 true, i1 %.not
  br i1 %or.cond, label %.critedge, label %.lr.ph, !llvm.loop !250

.critedge:                                        ; preds = %16, %.lr.ph, %3
  %.1 = phi i32 [ 0, %3 ], [ %14, %.lr.ph ], [ 0, %16 ]
  ret i32 %.1
}